target datalayout = "e-m:e-p270:32:32-p271:32:32-p272:64:64-i64:64-i128:128-f80:128-n8:16:32:64-S128"
target triple = "x86_64-pc-linux-gnu"

%struct.T1_Builder_FuncsRec_ = type { ptr, ptr, ptr, ptr, ptr, ptr, ptr, ptr }
%struct.FT_BBox_ = type { i64, i64, i64, i64 }
%struct.T1_BuilderRec_ = type { ptr, ptr, ptr, ptr, ptr, ptr, i64, i64, %struct.FT_Vector_, %struct.FT_Vector_, %struct.FT_BBox_, i32, i8, i8, i8, ptr, ptr, %struct.T1_Builder_FuncsRec_ }
%struct.FT_Vector_ = type { i64, i64 }
%struct.FT_GlyphSlotRec_ = type { ptr, ptr, ptr, i32, %struct.FT_Generic_, %struct.FT_Glyph_Metrics_, i64, i64, %struct.FT_Vector_, i32, %struct.FT_Bitmap_, i32, i32, %struct.FT_Outline_, i32, ptr, ptr, i64, i64, i64, ptr, ptr }
%struct.FT_Generic_ = type { ptr, ptr }
%struct.FT_Glyph_Metrics_ = type { i64, i64, i64, i64, i64, i64, i64, i64 }
%struct.FT_Bitmap_ = type { i32, i32, i32, ptr, i16, i8, i8, ptr }
%struct.FT_Outline_ = type { i16, i16, ptr, ptr, ptr, i32 }
%struct.FT_FaceRec_ = type { i64, i64, i64, i64, i64, ptr, ptr, i32, ptr, i32, ptr, %struct.FT_Generic_, %struct.FT_BBox_, i16, i16, i16, i16, i16, i16, i16, i16, ptr, ptr, ptr, ptr, ptr, ptr, %struct.FT_ListRec_, %struct.FT_Generic_, ptr, ptr }
%struct.FT_ListRec_ = type { ptr, ptr }
%struct.FT_Slot_InternalRec_ = type { ptr, i32, i8, %struct.FT_Matrix_, %struct.FT_Vector_, ptr, i32 }
%struct.FT_Matrix_ = type { i64, i64, i64, i64 }
%struct.FT_GlyphLoaderRec_ = type { ptr, i32, i32, i32, i8, %struct.FT_GlyphLoadRec_, %struct.FT_GlyphLoadRec_, ptr }
%struct.FT_GlyphLoadRec_ = type { %struct.FT_Outline_, ptr, ptr, i32, ptr }
%struct.FT_SizeRec_ = type { ptr, %struct.FT_Generic_, %struct.FT_Size_Metrics_, ptr }
%struct.FT_Size_Metrics_ = type { i16, i16, i64, i64, i64, i64, i64, i64 }
%struct.FT_Size_InternalRec_ = type { ptr, i32, %struct.FT_Size_Metrics_ }

@t1_builder_funcs = hidden constant %struct.T1_Builder_FuncsRec_ { ptr @t1_builder_init, ptr @t1_builder_done, ptr @t1_builder_check_points, ptr @t1_builder_add_point, ptr @t1_builder_add_point1, ptr @t1_builder_add_contour, ptr @t1_builder_start_point, ptr @t1_builder_close_contour }, align 8

; Function Attrs: nounwind uwtable
define internal void @t1_builder_init(ptr noundef %0, ptr noundef %1, ptr noundef %2, ptr noundef %3, i8 noundef zeroext %4) #0 {
  %6 = alloca ptr, align 8
  %7 = alloca ptr, align 8
  %8 = alloca ptr, align 8
  %9 = alloca ptr, align 8
  %10 = alloca i8, align 1
  %11 = alloca ptr, align 8
  store ptr %0, ptr %6, align 8
  store ptr %1, ptr %7, align 8
  store ptr %2, ptr %8, align 8
  store ptr %3, ptr %9, align 8
  store i8 %4, ptr %10, align 1
  %12 = load ptr, ptr %6, align 8
  %13 = getelementptr inbounds %struct.T1_BuilderRec_, ptr %12, i32 0, i32 11
  store i32 0, ptr %13, align 8
  %14 = load ptr, ptr %6, align 8
  %15 = getelementptr inbounds %struct.T1_BuilderRec_, ptr %14, i32 0, i32 12
  store i8 1, ptr %15, align 4
  %16 = load ptr, ptr %7, align 8
  %17 = load ptr, ptr %6, align 8
  %18 = getelementptr inbounds %struct.T1_BuilderRec_, ptr %17, i32 0, i32 1
  store ptr %16, ptr %18, align 8
  %19 = load ptr, ptr %9, align 8
  %20 = load ptr, ptr %6, align 8
  %21 = getelementptr inbounds %struct.T1_BuilderRec_, ptr %20, i32 0, i32 2
  store ptr %19, ptr %21, align 8
  %22 = load ptr, ptr %7, align 8
  %23 = getelementptr inbounds %struct.FT_FaceRec_, ptr %22, i32 0, i32 25
  %24 = load ptr, ptr %23, align 8
  %25 = load ptr, ptr %6, align 8
  %26 = getelementptr inbounds %struct.T1_BuilderRec_, ptr %25, i32 0, i32 0
  store ptr %24, ptr %26, align 8
  %27 = load ptr, ptr %9, align 8
  %28 = icmp ne ptr %27, null
  br i1 %28, label %29, label %69

29:                                               ; preds = %5
  %30 = load ptr, ptr %9, align 8
  %31 = getelementptr inbounds %struct.FT_GlyphSlotRec_, ptr %30, i32 0, i32 21
  %32 = load ptr, ptr %31, align 8
  %33 = getelementptr inbounds %struct.FT_Slot_InternalRec_, ptr %32, i32 0, i32 0
  %34 = load ptr, ptr %33, align 8
  store ptr %34, ptr %11, align 8
  %35 = load ptr, ptr %11, align 8
  %36 = load ptr, ptr %6, align 8
  %37 = getelementptr inbounds %struct.T1_BuilderRec_, ptr %36, i32 0, i32 3
  store ptr %35, ptr %37, align 8
  %38 = load ptr, ptr %11, align 8
  %39 = getelementptr inbounds %struct.FT_GlyphLoaderRec_, ptr %38, i32 0, i32 5
  %40 = getelementptr inbounds %struct.FT_GlyphLoadRec_, ptr %39, i32 0, i32 0
  %41 = load ptr, ptr %6, align 8
  %42 = getelementptr inbounds %struct.T1_BuilderRec_, ptr %41, i32 0, i32 4
  store ptr %40, ptr %42, align 8
  %43 = load ptr, ptr %11, align 8
  %44 = getelementptr inbounds %struct.FT_GlyphLoaderRec_, ptr %43, i32 0, i32 6
  %45 = getelementptr inbounds %struct.FT_GlyphLoadRec_, ptr %44, i32 0, i32 0
  %46 = load ptr, ptr %6, align 8
  %47 = getelementptr inbounds %struct.T1_BuilderRec_, ptr %46, i32 0, i32 5
  store ptr %45, ptr %47, align 8
  %48 = load ptr, ptr %11, align 8
  call void @FT_GlyphLoader_Rewind(ptr noundef %48)
  %49 = load ptr, ptr %8, align 8
  %50 = getelementptr inbounds %struct.FT_SizeRec_, ptr %49, i32 0, i32 3
  %51 = load ptr, ptr %50, align 8
  %52 = getelementptr inbounds %struct.FT_Size_InternalRec_, ptr %51, i32 0, i32 0
  %53 = load ptr, ptr %52, align 8
  %54 = load ptr, ptr %6, align 8
  %55 = getelementptr inbounds %struct.T1_BuilderRec_, ptr %54, i32 0, i32 16
  store ptr %53, ptr %55, align 8
  %56 = load ptr, ptr %6, align 8
  %57 = getelementptr inbounds %struct.T1_BuilderRec_, ptr %56, i32 0, i32 15
  store ptr null, ptr %57, align 8
  %58 = load i8, ptr %10, align 1
  %59 = icmp ne i8 %58, 0
  br i1 %59, label %60, label %68

60:                                               ; preds = %29
  %61 = load ptr, ptr %9, align 8
  %62 = getelementptr inbounds %struct.FT_GlyphSlotRec_, ptr %61, i32 0, i32 21
  %63 = load ptr, ptr %62, align 8
  %64 = getelementptr inbounds %struct.FT_Slot_InternalRec_, ptr %63, i32 0, i32 5
  %65 = load ptr, ptr %64, align 8
  %66 = load ptr, ptr %6, align 8
  %67 = getelementptr inbounds %struct.T1_BuilderRec_, ptr %66, i32 0, i32 15
  store ptr %65, ptr %67, align 8
  br label %68

68:                                               ; preds = %60, %29
  br label %69

69:                                               ; preds = %68, %5
  %70 = load ptr, ptr %6, align 8
  %71 = getelementptr inbounds %struct.T1_BuilderRec_, ptr %70, i32 0, i32 6
  store i64 0, ptr %71, align 8
  %72 = load ptr, ptr %6, align 8
  %73 = getelementptr inbounds %struct.T1_BuilderRec_, ptr %72, i32 0, i32 7
  store i64 0, ptr %73, align 8
  %74 = load ptr, ptr %6, align 8
  %75 = getelementptr inbounds %struct.T1_BuilderRec_, ptr %74, i32 0, i32 8
  %76 = getelementptr inbounds %struct.FT_Vector_, ptr %75, i32 0, i32 0
  store i64 0, ptr %76, align 8
  %77 = load ptr, ptr %6, align 8
  %78 = getelementptr inbounds %struct.T1_BuilderRec_, ptr %77, i32 0, i32 8
  %79 = getelementptr inbounds %struct.FT_Vector_, ptr %78, i32 0, i32 1
  store i64 0, ptr %79, align 8
  %80 = load ptr, ptr %6, align 8
  %81 = getelementptr inbounds %struct.T1_BuilderRec_, ptr %80, i32 0, i32 9
  %82 = getelementptr inbounds %struct.FT_Vector_, ptr %81, i32 0, i32 0
  store i64 0, ptr %82, align 8
  %83 = load ptr, ptr %6, align 8
  %84 = getelementptr inbounds %struct.T1_BuilderRec_, ptr %83, i32 0, i32 9
  %85 = getelementptr inbounds %struct.FT_Vector_, ptr %84, i32 0, i32 1
  store i64 0, ptr %85, align 8
  %86 = load ptr, ptr %6, align 8
  %87 = getelementptr inbounds %struct.T1_BuilderRec_, ptr %86, i32 0, i32 17
  call void @llvm.memcpy.p0.p0.i64(ptr align 8 %87, ptr align 8 @t1_builder_funcs, i64 64, i1 false)
  ret void
}