; Function Attrs: nounwind uwtable
define internal void @t1_builder_init(ptr noundef writeonly captures(none) initializes((0, 24), (48, 96), (128, 133), (152, 216)) %0, ptr noundef %1, ptr noundef readonly captures(none) %2, ptr noundef %3, i8 noundef zeroext %4) #0 {
  %6 = getelementptr inbounds nuw i8, ptr %0, i64 128
  store i32 0, ptr %6, align 8
  %7 = getelementptr inbounds nuw i8, ptr %0, i64 132
  store i8 1, ptr %7, align 4
  %8 = getelementptr inbounds nuw i8, ptr %0, i64 8
  store ptr %1, ptr %8, align 8
  %9 = getelementptr inbounds nuw i8, ptr %0, i64 16
  store ptr %3, ptr %9, align 8
  %10 = getelementptr inbounds nuw i8, ptr %1, i64 184
  %11 = load ptr, ptr %10, align 8
  store ptr %11, ptr %0, align 8
  %.not = icmp eq ptr %3, null
  br i1 %.not, label %30, label %12

12:                                               ; preds = %5
  %13 = getelementptr inbounds nuw i8, ptr %3, i64 296
  %14 = load ptr, ptr %13, align 8
  %15 = load ptr, ptr %14, align 8
  %16 = getelementptr inbounds nuw i8, ptr %0, i64 24
  store ptr %15, ptr %16, align 8
  %17 = getelementptr inbounds nuw i8, ptr %15, i64 24
  %18 = getelementptr inbounds nuw i8, ptr %0, i64 32
  store ptr %17, ptr %18, align 8
  %19 = getelementptr inbounds nuw i8, ptr %15, i64 96
  %20 = getelementptr inbounds nuw i8, ptr %0, i64 40
  store ptr %19, ptr %20, align 8
  tail call void @FT_GlyphLoader_Rewind(ptr noundef %15) #20
  %21 = getelementptr inbounds nuw i8, ptr %2, i64 80
  %22 = load ptr, ptr %21, align 8
  %23 = load ptr, ptr %22, align 8
  %24 = getelementptr inbounds nuw i8, ptr %0, i64 144
  store ptr %23, ptr %24, align 8
  %25 = getelementptr inbounds nuw i8, ptr %0, i64 136
  store ptr null, ptr %25, align 8
  %.not29 = icmp eq i8 %4, 0
  br i1 %.not29, label %30, label %26

26:                                               ; preds = %12
  %27 = load ptr, ptr %13, align 8
  %28 = getelementptr inbounds nuw i8, ptr %27, i64 64
  %29 = load ptr, ptr %28, align 8
  store ptr %29, ptr %25, align 8
  br label %30

30:                                               ; preds = %12, %26, %5
  %31 = getelementptr inbounds nuw i8, ptr %0, i64 48
  %32 = getelementptr inbounds nuw i8, ptr %0, i64 152
  tail call void @llvm.memset.p0.i64(ptr noundef nonnull align 8 dereferenceable(48) %31, i8 0, i64 48, i1 false)
  tail call void @llvm.memcpy.p0.p0.i64(ptr noundef nonnull align 8 dereferenceable(64) %32, ptr noundef nonnull align 8 dereferenceable(64) @t1_builder_funcs, i64 64, i1 false)
  ret void
}